(dp0
S'sticker_designs'
p1
(dp2
S'sd0'
p3
S'sticker0.dat'
p4
ssS'sticker_layout'
p5
(dp6
S's0'
p7
(dp8
S'cubie'
p9
S'c0'
p10
sS'rot_x'
p11
I0
sS'design'
p12
g3
sS'rot_z'
p13
I0
sS'y'
p14
I0
sS'x'
p15
I1
sS'rot_y'
p16
I0
sS'z'
p17
I0
sssS'cubie_designs'
p18
(dp19
S'cd0'
p20
S'cubie0.dat'
p21
ssS'cubie_layout'
p22
(dp23
g10
(dp24
g11
I0
sg12
g20
sg13
I0
sg14
I0
sg15
I0
sg16
I0
sg17
I0
sss.